; Function Attrs: mustprogress uwtable
define internal void @_ZN7rocksdb12_GLOBAL__N_126ExternalTableReaderAdapter3GetERKNS_11ReadOptionsERKNS_5SliceEPNS_10GetContextEPKNS_14SliceTransformEb(ptr dead_on_unwind noalias nonnull writable sret(%"class.rocksdb::Status") align 8 %0, ptr nonnull readnone align 8 captures(none) %1, ptr nonnull readnone align 8 captures(none) %2, ptr nonnull readnone align 8 captures(none) %3, ptr readnone captures(none) %4, ptr readnone captures(none) %5, i1 zeroext %6) unnamed_addr #4 align 2 {
  %8 = alloca %"class.rocksdb::Slice", align 8
  %9 = alloca %"class.rocksdb::Slice", align 8
  call void @llvm.lifetime.start.p0(i64 16, ptr nonnull %8) #27
  store ptr @.str.48, ptr %8, align 8, !tbaa !164
  %10 = getelementptr inbounds nuw i8, ptr %8, i64 8
  store i64 45, ptr %10, align 8, !tbaa !166
  call void @llvm.lifetime.start.p0(i64 16, ptr nonnull %9) #27
  store ptr @.str, ptr %9, align 8, !tbaa !164
  %11 = getelementptr inbounds nuw i8, ptr %9, i64 8
  store i64 0, ptr %11, align 8, !tbaa !166
  call void @_ZN7rocksdb6StatusC2ENS0_4CodeENS0_7SubCodeERKNS_5SliceES5_NS0_8SeverityE(ptr noundef nonnull align 8 dereferenceable(16) %0, i8 noundef zeroext 3, i8 noundef zeroext 0, ptr noundef nonnull align 8 dereferenceable(16) %8, ptr noundef nonnull align 8 dereferenceable(16) %9, i8 noundef zeroext 0)
  call void @llvm.lifetime.end.p0(i64 16, ptr nonnull %9) #27
  call void @llvm.lifetime.end.p0(i64 16, ptr nonnull %8) #27
  ret void
}